target datalayout = "e-m:e-p270:32:32-p271:32:32-p272:64:64-i64:64-i128:128-f80:128-n8:16:32:64-S128"
target triple = "x86_64-pc-linux-gnu"

%class.solver_pool = type { %class.ref, i32, i32, %class.ref_vector_core, %"struct.solver_pool::stats", [4 x i8], %class.stopwatch, %class.stopwatch, %class.stopwatch, %class.stopwatch }
%class.ref = type { ptr }
%class.ref_vector_core = type { %class.ptr_vector }
%class.ptr_vector = type { %class.vector }
%class.vector = type { ptr }
%"struct.solver_pool::stats" = type { i32, i32, i32 }
%class.stopwatch = type <{ %"class.std::chrono::time_point", %"class.std::chrono::duration", i8, [7 x i8] }>
%"class.std::chrono::time_point" = type { %"class.std::chrono::duration" }
%"class.std::chrono::duration" = type { i64 }
%class.pool_solver = type <{ %class.solver_na2as, ptr, %class.obj_ref, %class.obj_ref, %class.ref, %class.ref_vector, i32, [4 x i8], %class.ref_vector, i8, i8, i8, [5 x i8], double, i32, [4 x i8] }>
%class.solver_na2as = type { %class.solver, %class.ref_vector, %class.svector }
%class.solver = type { %class.check_sat_result, %"class.user_propagator::core", %class.params_ref, %class.symbol }
%class.check_sat_result = type { ptr, ptr, %class.ref_vector, %class.obj_ref, i32, i32, %class.ref.3, double }
%class.ref.3 = type { ptr }
%"class.user_propagator::core" = type { ptr }
%class.params_ref = type { ptr }
%class.symbol = type { ptr }
%class.svector = type { %class.vector.4 }
%class.vector.4 = type { ptr }
%class.obj_ref = type { ptr, ptr }
%class.ref_vector = type { %class.ref_vector_core.0 }
%class.ref_vector_core.0 = type { %class.ref_manager_wrapper, %class.ptr_vector.1 }
%class.ref_manager_wrapper = type { ptr }
%class.ptr_vector.1 = type { %class.vector.2 }
%class.vector.2 = type { ptr }

@_ZTI6solver = external constant ptr
@_ZTI11pool_solver = linkonce_odr hidden constant { ptr, ptr, ptr } { ptr getelementptr inbounds (ptr, ptr @_ZTVN10__cxxabiv120__si_class_type_infoE, i64 2), ptr @_ZTS11pool_solver, ptr @_ZTI12solver_na2as }, comdat, align 8

; Function Attrs: mustprogress uwtable
define linkonce_odr hidden void @_Z7deallocI16check_sat_resultEvPT_(ptr noundef %0) #4 comdat {
  %2 = alloca ptr, align 8
  store ptr %0, ptr %2, align 8, !tbaa !254
  %3 = load ptr, ptr %2, align 8, !tbaa !254
  %4 = icmp eq ptr %3, null
  br i1 %4, label %5, label %6

5:                                                ; preds = %1
  br label %12

6:                                                ; preds = %1
  %7 = load ptr, ptr %2, align 8, !tbaa !254
  %8 = load ptr, ptr %7, align 8, !tbaa !49
  %9 = getelementptr inbounds ptr, ptr %8, i64 0
  %10 = load ptr, ptr %9, align 8
  call void %10(ptr noundef nonnull align 8 dereferenceable(72) %7) #3
  %11 = load ptr, ptr %2, align 8, !tbaa !254
  call void @_ZN6memory10deallocateEPv(ptr noundef %11)
  br label %12

12:                                               ; preds = %6, %5
  ret void
}

; Function Attrs: mustprogress uwtable
define linkonce_odr hidden void @_ZN16check_sat_result7dec_refEv(ptr noundef nonnull align 8 dereferenceable(72) %0) #4 comdat align 2 {
  %2 = alloca ptr, align 8
  store ptr %0, ptr %2, align 8, !tbaa !254
  %3 = load ptr, ptr %2, align 8
  %4 = getelementptr inbounds nuw %class.check_sat_result, ptr %3, i32 0, i32 4
  %5 = load i32, ptr %4, align 8, !tbaa !477
  %6 = add i32 %5, -1
  store i32 %6, ptr %4, align 8, !tbaa !477
  %7 = getelementptr inbounds nuw %class.check_sat_result, ptr %3, i32 0, i32 4
  %8 = load i32, ptr %7, align 8, !tbaa !477
  %9 = icmp eq i32 %8, 0
  br i1 %9, label %10, label %11

10:                                               ; preds = %1
  call void @_Z7deallocI16check_sat_resultEvPT_(ptr noundef %3)
  br label %11

11:                                               ; preds = %10, %1
  ret void
}

; Function Attrs: mustprogress uwtable
define linkonce_odr hidden void @_ZN3refI6solverE7dec_refEv(ptr noundef nonnull align 8 dereferenceable(8) %0) #4 comdat align 2 {
  %2 = alloca ptr, align 8
  store ptr %0, ptr %2, align 8, !tbaa !27
  %3 = load ptr, ptr %2, align 8
  %4 = getelementptr inbounds nuw %class.ref, ptr %3, i32 0, i32 0
  %5 = load ptr, ptr %4, align 8, !tbaa !29
  %6 = icmp ne ptr %5, null
  br i1 %6, label %7, label %10

7:                                                ; preds = %1
  %8 = getelementptr inbounds nuw %class.ref, ptr %3, i32 0, i32 0
  %9 = load ptr, ptr %8, align 8, !tbaa !29
  call void @_ZN16check_sat_result7dec_refEv(ptr noundef nonnull align 8 dereferenceable(72) %9)
  br label %10

10:                                               ; preds = %7, %1
  ret void
}

; Function Attrs: mustprogress nounwind uwtable
define linkonce_odr hidden noundef i32 @_ZNK6vectorIP6solverLb0EjE4sizeEv(ptr noundef nonnull align 8 dereferenceable(8) %0) #5 comdat align 2 {
  %2 = alloca i32, align 4
  %3 = alloca ptr, align 8
  store ptr %0, ptr %3, align 8, !tbaa !42
  %4 = load ptr, ptr %3, align 8
  %5 = getelementptr inbounds nuw %class.vector, ptr %4, i32 0, i32 0
  %6 = load ptr, ptr %5, align 8, !tbaa !46
  %7 = icmp eq ptr %6, null
  br i1 %7, label %8, label %9

8:                                                ; preds = %1
  store i32 0, ptr %2, align 4
  br label %14

9:                                                ; preds = %1
  %10 = getelementptr inbounds nuw %class.vector, ptr %4, i32 0, i32 0
  %11 = load ptr, ptr %10, align 8, !tbaa !46
  %12 = getelementptr inbounds i32, ptr %11, i64 -1
  %13 = load i32, ptr %12, align 4, !tbaa !10
  store i32 %13, ptr %2, align 4
  br label %14

14:                                               ; preds = %9, %8
  %15 = load i32, ptr %2, align 4
  ret i32 %15
}

; Function Attrs: mustprogress nounwind uwtable
define linkonce_odr hidden void @_ZN16check_sat_result7inc_refEv(ptr noundef nonnull align 8 dereferenceable(72) %0) #5 comdat align 2 {
  %2 = alloca ptr, align 8
  store ptr %0, ptr %2, align 8, !tbaa !254
  %3 = load ptr, ptr %2, align 8
  %4 = getelementptr inbounds nuw %class.check_sat_result, ptr %3, i32 0, i32 4
  %5 = load i32, ptr %4, align 8, !tbaa !477
  %6 = add i32 %5, 1
  store i32 %6, ptr %4, align 8, !tbaa !477
  ret void
}

; Function Attrs: mustprogress uwtable
define linkonce_odr hidden noundef nonnull align 8 dereferenceable(8) ptr @_ZN3refI6solverEaSEPS0_(ptr noundef nonnull align 8 dereferenceable(8) %0, ptr noundef %1) #4 comdat align 2 {
  %3 = alloca ptr, align 8
  %4 = alloca ptr, align 8
  store ptr %0, ptr %3, align 8, !tbaa !27
  store ptr %1, ptr %4, align 8, !tbaa !8
  %5 = load ptr, ptr %3, align 8
  %6 = load ptr, ptr %4, align 8, !tbaa !8
  %7 = icmp ne ptr %6, null
  br i1 %7, label %8, label %10

8:                                                ; preds = %2
  %9 = load ptr, ptr %4, align 8, !tbaa !8
  call void @_ZN16check_sat_result7inc_refEv(ptr noundef nonnull align 8 dereferenceable(72) %9)
  br label %10

10:                                               ; preds = %8, %2
  call void @_ZN3refI6solverE7dec_refEv(ptr noundef nonnull align 8 dereferenceable(8) %5)
  %11 = load ptr, ptr %4, align 8, !tbaa !8
  %12 = getelementptr inbounds nuw %class.ref, ptr %5, i32 0, i32 0
  store ptr %11, ptr %12, align 8, !tbaa !29
  ret ptr %5
}

; Function Attrs: mustprogress nounwind uwtable
define linkonce_odr hidden noundef i32 @_ZNK15ref_vector_coreI6solver21ref_unmanaged_wrapperIS0_EE4sizeEv(ptr noundef nonnull align 8 dereferenceable(8) %0) #5 comdat align 2 {
  %2 = alloca ptr, align 8
  store ptr %0, ptr %2, align 8, !tbaa !30
  %3 = load ptr, ptr %2, align 8
  %4 = getelementptr inbounds nuw %class.ref_vector_core, ptr %3, i32 0, i32 0
  %5 = call noundef i32 @_ZNK6vectorIP6solverLb0EjE4sizeEv(ptr noundef nonnull align 8 dereferenceable(8) %4)
  ret i32 %5
}

; Function Attrs: mustprogress nounwind uwtable
define linkonce_odr hidden noundef ptr @_ZNK6vectorIP6solverLb0EjE5beginEv(ptr noundef nonnull align 8 dereferenceable(8) %0) #5 comdat align 2 {
  %2 = alloca ptr, align 8
  store ptr %0, ptr %2, align 8, !tbaa !42
  %3 = load ptr, ptr %2, align 8
  %4 = getelementptr inbounds nuw %class.vector, ptr %3, i32 0, i32 0
  %5 = load ptr, ptr %4, align 8, !tbaa !46
  ret ptr %5
}

; Function Attrs: mustprogress uwtable
define linkonce_odr hidden void @_ZN3refI6solverE7inc_refEv(ptr noundef nonnull align 8 dereferenceable(8) %0) #4 comdat align 2 {
  %2 = alloca ptr, align 8
  store ptr %0, ptr %2, align 8, !tbaa !27
  %3 = load ptr, ptr %2, align 8
  %4 = getelementptr inbounds nuw %class.ref, ptr %3, i32 0, i32 0
  %5 = load ptr, ptr %4, align 8, !tbaa !29
  %6 = icmp ne ptr %5, null
  br i1 %6, label %7, label %10

7:                                                ; preds = %1
  %8 = getelementptr inbounds nuw %class.ref, ptr %3, i32 0, i32 0
  %9 = load ptr, ptr %8, align 8, !tbaa !29
  call void @_ZN16check_sat_result7inc_refEv(ptr noundef nonnull align 8 dereferenceable(72) %9)
  br label %10

10:                                               ; preds = %7, %1
  ret void
}

; Function Attrs: mustprogress uwtable
define linkonce_odr hidden void @_ZN11pool_solver7refreshEP6solver(ptr noundef nonnull align 8 dereferenceable(228) %0, ptr noundef %1) #4 comdat align 2 {
  %3 = alloca ptr, align 8
  %4 = alloca ptr, align 8
  store ptr %0, ptr %3, align 8, !tbaa !38
  store ptr %1, ptr %4, align 8, !tbaa !8
  %5 = load ptr, ptr %3, align 8
  %6 = getelementptr inbounds nuw %class.pool_solver, ptr %5, i32 0, i32 6
  store i32 0, ptr %6, align 8, !tbaa !152
  %7 = load ptr, ptr %4, align 8, !tbaa !8
  %8 = getelementptr inbounds nuw %class.pool_solver, ptr %5, i32 0, i32 4
  %9 = call noundef nonnull align 8 dereferenceable(8) ptr @_ZN3refI6solverEaSEPS0_(ptr noundef nonnull align 8 dereferenceable(8) %8, ptr noundef %7)
  ret void
}

; Function Attrs: mustprogress nounwind uwtable
define linkonce_odr hidden noundef ptr @_ZNK3refI6solverE3getEv(ptr noundef nonnull align 8 dereferenceable(8) %0) #5 comdat align 2 {
  %2 = alloca ptr, align 8
  store ptr %0, ptr %2, align 8, !tbaa !27
  %3 = load ptr, ptr %2, align 8
  %4 = getelementptr inbounds nuw %class.ref, ptr %3, i32 0, i32 0
  %5 = load ptr, ptr %4, align 8, !tbaa !29
  ret ptr %5
}

; Function Attrs: mustprogress uwtable
define linkonce_odr hidden noundef ptr @_ZN11pool_solver11base_solverEv(ptr noundef nonnull align 8 dereferenceable(228) %0) #4 comdat align 2 {
  %2 = alloca ptr, align 8
  store ptr %0, ptr %2, align 8, !tbaa !38
  %3 = load ptr, ptr %2, align 8
  %4 = getelementptr inbounds nuw %class.pool_solver, ptr %3, i32 0, i32 4
  %5 = call noundef ptr @_ZNK3refI6solverE3getEv(ptr noundef nonnull align 8 dereferenceable(8) %4)
  ret ptr %5
}

; Function Attrs: mustprogress uwtable
define linkonce_odr hidden noundef ptr @_ZNK15ref_vector_coreI6solver21ref_unmanaged_wrapperIS0_EE3endEv(ptr noundef nonnull align 8 dereferenceable(8) %0) #4 comdat align 2 {
  %2 = alloca ptr, align 8
  store ptr %0, ptr %2, align 8, !tbaa !30
  %3 = load ptr, ptr %2, align 8
  %4 = call noundef ptr @_ZNK15ref_vector_coreI6solver21ref_unmanaged_wrapperIS0_EE5beginEv(ptr noundef nonnull align 8 dereferenceable(8) %3)
  %5 = call noundef i32 @_ZNK15ref_vector_coreI6solver21ref_unmanaged_wrapperIS0_EE4sizeEv(ptr noundef nonnull align 8 dereferenceable(8) %3)
  %6 = zext i32 %5 to i64
  %7 = getelementptr inbounds nuw ptr, ptr %4, i64 %6
  ret ptr %7
}

; Function Attrs: mustprogress uwtable
define linkonce_odr hidden noundef ptr @_ZNK15ref_vector_coreI6solver21ref_unmanaged_wrapperIS0_EE5beginEv(ptr noundef nonnull align 8 dereferenceable(8) %0) #4 comdat align 2 {
  %2 = alloca ptr, align 8
  store ptr %0, ptr %2, align 8, !tbaa !30
  %3 = load ptr, ptr %2, align 8
  %4 = getelementptr inbounds nuw %class.ref_vector_core, ptr %3, i32 0, i32 0
  %5 = call noundef ptr @_ZNK6vectorIP6solverLb0EjE5beginEv(ptr noundef nonnull align 8 dereferenceable(8) %4)
  ret ptr %5
}

; Function Attrs: mustprogress uwtable
define linkonce_odr hidden void @_ZN3refI6solverEC2EPS0_(ptr noundef nonnull align 8 dereferenceable(8) %0, ptr noundef %1) unnamed_addr #4 comdat align 2 {
  %3 = alloca ptr, align 8
  %4 = alloca ptr, align 8
  store ptr %0, ptr %3, align 8, !tbaa !27
  store ptr %1, ptr %4, align 8, !tbaa !8
  %5 = load ptr, ptr %3, align 8
  %6 = getelementptr inbounds nuw %class.ref, ptr %5, i32 0, i32 0
  %7 = load ptr, ptr %4, align 8, !tbaa !8
  store ptr %7, ptr %6, align 8, !tbaa !29
  call void @_ZN3refI6solverE7inc_refEv(ptr noundef nonnull align 8 dereferenceable(8) %5)
  ret void
}

; Function Attrs: mustprogress nounwind uwtable
define linkonce_odr hidden noundef ptr @_ZNK3refI6solverEptEv(ptr noundef nonnull align 8 dereferenceable(8) %0) #5 comdat align 2 {
  %2 = alloca ptr, align 8
  store ptr %0, ptr %2, align 8, !tbaa !27
  %3 = load ptr, ptr %2, align 8
  %4 = getelementptr inbounds nuw %class.ref, ptr %3, i32 0, i32 0
  %5 = load ptr, ptr %4, align 8, !tbaa !29
  ret ptr %5
}

; Function Attrs: mustprogress uwtable
define hidden void @_ZN11solver_pool7refreshEP6solver(ptr noundef nonnull align 8 dereferenceable(136) %0, ptr noundef %1) #4 align 2 personality ptr @__gxx_personality_v0 {
  %3 = alloca ptr, align 8
  %4 = alloca ptr, align 8
  %5 = alloca ptr, align 8
  %6 = alloca %class.ref, align 8
  %7 = alloca ptr, align 8
  %8 = alloca ptr, align 8
  %9 = alloca ptr, align 8
  %10 = alloca i32, align 4
  %11 = alloca ptr, align 8
  %12 = alloca ptr, align 8
  %13 = alloca ptr, align 8
  store ptr %0, ptr %3, align 8, !tbaa !3
  store ptr %1, ptr %4, align 8, !tbaa !8
  %14 = load ptr, ptr %3, align 8
  call void @llvm.lifetime.start.p0(i64 8, ptr %5) #3
  %15 = getelementptr inbounds nuw %class.solver_pool, ptr %14, i32 0, i32 0
  %16 = call noundef ptr @_ZNK3refI6solverEptEv(ptr noundef nonnull align 8 dereferenceable(8) %15)
  %17 = load ptr, ptr %16, align 8, !tbaa !49
  %18 = getelementptr inbounds ptr, ptr %17, i64 9
  %19 = load ptr, ptr %18, align 8
  %20 = call noundef nonnull align 8 dereferenceable(976) ptr %19(ptr noundef nonnull align 8 dereferenceable(72) %16)
  store ptr %20, ptr %5, align 8, !tbaa !60
  call void @llvm.lifetime.start.p0(i64 8, ptr %6) #3
  %21 = getelementptr inbounds nuw %class.solver_pool, ptr %14, i32 0, i32 0
  %22 = call noundef ptr @_ZNK3refI6solverEptEv(ptr noundef nonnull align 8 dereferenceable(8) %21)
  %23 = load ptr, ptr %5, align 8, !tbaa !60
  %24 = getelementptr inbounds nuw %class.solver_pool, ptr %14, i32 0, i32 0
  %25 = call noundef ptr @_ZNK3refI6solverEptEv(ptr noundef nonnull align 8 dereferenceable(8) %24)
  %26 = load ptr, ptr %25, align 8, !tbaa !49
  %27 = getelementptr inbounds ptr, ptr %26, i64 13
  %28 = load ptr, ptr %27, align 8
  %29 = call noundef nonnull align 8 dereferenceable(8) ptr %28(ptr noundef nonnull align 8 dereferenceable(96) %25)
  %30 = load ptr, ptr %22, align 8, !tbaa !49
  %31 = getelementptr inbounds ptr, ptr %30, i64 10
  %32 = load ptr, ptr %31, align 8
  %33 = call noundef ptr %32(ptr noundef nonnull align 8 dereferenceable(96) %22, ptr noundef nonnull align 8 dereferenceable(976) %23, ptr noundef nonnull align 8 dereferenceable(8) %29)
  call void @_ZN3refI6solverEC2EPS0_(ptr noundef nonnull align 8 dereferenceable(8) %6, ptr noundef %33)
  call void @llvm.lifetime.start.p0(i64 8, ptr %7) #3
  %34 = getelementptr inbounds nuw %class.solver_pool, ptr %14, i32 0, i32 3
  store ptr %34, ptr %7, align 8, !tbaa !30
  call void @llvm.lifetime.start.p0(i64 8, ptr %8) #3
  %35 = load ptr, ptr %7, align 8, !tbaa !30
  %36 = invoke noundef ptr @_ZNK15ref_vector_coreI6solver21ref_unmanaged_wrapperIS0_EE5beginEv(ptr noundef nonnull align 8 dereferenceable(8) %35)
          to label %37 unwind label %46

37:                                               ; preds = %2
  store ptr %36, ptr %8, align 8, !tbaa !37
  call void @llvm.lifetime.start.p0(i64 8, ptr %11) #3
  %38 = load ptr, ptr %7, align 8, !tbaa !30
  %39 = invoke noundef ptr @_ZNK15ref_vector_coreI6solver21ref_unmanaged_wrapperIS0_EE3endEv(ptr noundef nonnull align 8 dereferenceable(8) %38)
          to label %40 unwind label %50

40:                                               ; preds = %37
  store ptr %39, ptr %11, align 8, !tbaa !37
  br label %41

41:                                               ; preds = %79, %40
  %42 = load ptr, ptr %8, align 8, !tbaa !37
  %43 = load ptr, ptr %11, align 8, !tbaa !37
  %44 = icmp ne ptr %42, %43
  br i1 %44, label %54, label %45

45:                                               ; preds = %41
  call void @llvm.lifetime.end.p0(i64 8, ptr %11) #3
  call void @llvm.lifetime.end.p0(i64 8, ptr %8) #3
  call void @llvm.lifetime.end.p0(i64 8, ptr %7) #3
  br label %84

46:                                               ; preds = %2
  %47 = landingpad { ptr, i32 }
          cleanup
  %48 = extractvalue { ptr, i32 } %47, 0
  store ptr %48, ptr %9, align 8
  %49 = extractvalue { ptr, i32 } %47, 1
  store i32 %49, ptr %10, align 4
  br label %83

50:                                               ; preds = %37
  %51 = landingpad { ptr, i32 }
          cleanup
  %52 = extractvalue { ptr, i32 } %51, 0
  store ptr %52, ptr %9, align 8
  %53 = extractvalue { ptr, i32 } %51, 1
  store i32 %53, ptr %10, align 4
  br label %82

54:                                               ; preds = %41
  call void @llvm.lifetime.start.p0(i64 8, ptr %12) #3
  %55 = load ptr, ptr %8, align 8, !tbaa !37
  %56 = load ptr, ptr %55, align 8, !tbaa !8
  store ptr %56, ptr %12, align 8, !tbaa !8
  call void @llvm.lifetime.start.p0(i64 8, ptr %13) #3
  %57 = load ptr, ptr %12, align 8, !tbaa !8
  %58 = icmp eq ptr %57, null
  br i1 %58, label %61, label %59

59:                                               ; preds = %54
  %60 = call ptr @__dynamic_cast(ptr %57, ptr @_ZTI6solver, ptr @_ZTI11pool_solver, i64 0) #3
  br label %62

61:                                               ; preds = %54
  br label %62

62:                                               ; preds = %61, %59
  %63 = phi ptr [ %60, %59 ], [ null, %61 ]
  store ptr %63, ptr %13, align 8, !tbaa !38
  %64 = load ptr, ptr %4, align 8, !tbaa !8
  %65 = load ptr, ptr %13, align 8, !tbaa !38
  %66 = invoke noundef ptr @_ZN11pool_solver11base_solverEv(ptr noundef nonnull align 8 dereferenceable(228) %65)
          to label %67 unwind label %74

67:                                               ; preds = %62
  %68 = icmp eq ptr %64, %66
  br i1 %68, label %69, label %78

69:                                               ; preds = %67
  %70 = load ptr, ptr %13, align 8, !tbaa !38
  %71 = invoke noundef ptr @_ZNK3refI6solverE3getEv(ptr noundef nonnull align 8 dereferenceable(8) %6)
          to label %72 unwind label %74

72:                                               ; preds = %69
  invoke void @_ZN11pool_solver7refreshEP6solver(ptr noundef nonnull align 8 dereferenceable(228) %70, ptr noundef %71)
          to label %73 unwind label %74

73:                                               ; preds = %72
  br label %78

74:                                               ; preds = %72, %69, %62
  %75 = landingpad { ptr, i32 }
          cleanup
  %76 = extractvalue { ptr, i32 } %75, 0
  store ptr %76, ptr %9, align 8
  %77 = extractvalue { ptr, i32 } %75, 1
  store i32 %77, ptr %10, align 4
  call void @llvm.lifetime.end.p0(i64 8, ptr %13) #3
  call void @llvm.lifetime.end.p0(i64 8, ptr %12) #3
  br label %82

78:                                               ; preds = %73, %67
  call void @llvm.lifetime.end.p0(i64 8, ptr %13) #3
  call void @llvm.lifetime.end.p0(i64 8, ptr %12) #3
  br label %79

79:                                               ; preds = %78
  %80 = load ptr, ptr %8, align 8, !tbaa !37
  %81 = getelementptr inbounds nuw ptr, ptr %80, i32 1
  store ptr %81, ptr %8, align 8, !tbaa !37
  br label %41

82:                                               ; preds = %74, %50
  call void @llvm.lifetime.end.p0(i64 8, ptr %11) #3
  br label %83

83:                                               ; preds = %82, %46
  call void @llvm.lifetime.end.p0(i64 8, ptr %8) #3
  call void @llvm.lifetime.end.p0(i64 8, ptr %7) #3
  call void @_ZN3refI6solverED2Ev(ptr noundef nonnull align 8 dereferenceable(8) %6) #3
  call void @llvm.lifetime.end.p0(i64 8, ptr %6) #3
  call void @llvm.lifetime.end.p0(i64 8, ptr %5) #3
  br label %85

84:                                               ; preds = %45
  call void @_ZN3refI6solverED2Ev(ptr noundef nonnull align 8 dereferenceable(8) %6) #3
  call void @llvm.lifetime.end.p0(i64 8, ptr %6) #3
  call void @llvm.lifetime.end.p0(i64 8, ptr %5) #3
  ret void

85:                                               ; preds = %83
  %86 = load ptr, ptr %9, align 8
  %87 = load i32, ptr %10, align 4
  %88 = insertvalue { ptr, i32 } poison, ptr %86, 0
  %89 = insertvalue { ptr, i32 } %88, i32 %87, 1
  resume { ptr, i32 } %89
}