; Function Attrs: mustprogress uwtable
define hidden void @_ZN11solver_pool7refreshEP6solver(ptr noundef nonnull readonly align 8 captures(none) dereferenceable(136) %0, ptr noundef readnone captures(address) %1) local_unnamed_addr #5 align 2 personality ptr @__gxx_personality_v0 {
  %3 = alloca %class.ref, align 8
  %4 = load ptr, ptr %0, align 8, !tbaa !3
  %5 = load ptr, ptr %4, align 8, !tbaa !38
  %6 = getelementptr inbounds nuw i8, ptr %5, i64 72
  %7 = load ptr, ptr %6, align 8
  %8 = tail call noundef nonnull align 8 dereferenceable(976) ptr %7(ptr noundef nonnull align 8 dereferenceable(72) %4)
  call void @llvm.lifetime.start.p0(i64 8, ptr nonnull %3) #25
  %9 = load ptr, ptr %0, align 8, !tbaa !3
  %10 = load ptr, ptr %9, align 8, !tbaa !38
  %11 = getelementptr inbounds nuw i8, ptr %10, i64 104
  %12 = load ptr, ptr %11, align 8
  %13 = tail call noundef nonnull align 8 dereferenceable(8) ptr %12(ptr noundef nonnull align 8 dereferenceable(96) %9)
  %14 = load ptr, ptr %9, align 8, !tbaa !38
  %15 = getelementptr inbounds nuw i8, ptr %14, i64 80
  %16 = load ptr, ptr %15, align 8
  %17 = tail call noundef ptr %16(ptr noundef nonnull align 8 dereferenceable(96) %9, ptr noundef nonnull align 8 dereferenceable(976) %8, ptr noundef nonnull align 8 dereferenceable(8) %13)
  store ptr %17, ptr %3, align 8, !tbaa !3
  %.not.i.i = icmp eq ptr %17, null
  br i1 %.not.i.i, label %22, label %18

18:                                               ; preds = %2
  %19 = getelementptr inbounds nuw i8, ptr %17, i64 48
  %20 = load i32, ptr %19, align 8, !tbaa !9
  %21 = add i32 %20, 1
  store i32 %21, ptr %19, align 8, !tbaa !9
  br label %22

22:                                               ; preds = %18, %2
  %23 = getelementptr inbounds nuw i8, ptr %0, i64 16
  %24 = load ptr, ptr %23, align 8, !tbaa !40
  %25 = icmp eq ptr %24, null
  br i1 %25, label %._crit_edge, label %_ZNK15ref_vector_coreI6solver21ref_unmanaged_wrapperIS0_EE3endEv.exit

_ZNK15ref_vector_coreI6solver21ref_unmanaged_wrapperIS0_EE3endEv.exit: ; preds = %22
  %26 = getelementptr inbounds i8, ptr %24, i64 -4
  %27 = load i32, ptr %26, align 4, !tbaa !41
  %28 = zext i32 %27 to i64
  %29 = getelementptr inbounds nuw ptr, ptr %24, i64 %28
  %.not21 = icmp eq i32 %27, 0
  br i1 %.not21, label %._crit_edge, label %.lr.ph.preheader

.lr.ph.preheader:                                 ; preds = %_ZNK15ref_vector_coreI6solver21ref_unmanaged_wrapperIS0_EE3endEv.exit
  %30 = getelementptr inbounds nuw i8, ptr %17, i64 48
  %.not.i.i.i = icmp eq ptr %1, null
  br label %.lr.ph

._crit_edge:                                      ; preds = %63, %22, %_ZNK15ref_vector_coreI6solver21ref_unmanaged_wrapperIS0_EE3endEv.exit
  br i1 %.not.i.i, label %_ZN3refI6solverED2Ev.exit, label %31

31:                                               ; preds = %._crit_edge
  %32 = getelementptr inbounds nuw i8, ptr %17, i64 48
  %33 = load i32, ptr %32, align 8, !tbaa !9
  %34 = add i32 %33, -1
  store i32 %34, ptr %32, align 8, !tbaa !9
  %35 = icmp eq i32 %34, 0
  br i1 %35, label %36, label %_ZN3refI6solverED2Ev.exit

36:                                               ; preds = %31
  %37 = load ptr, ptr %17, align 8, !tbaa !38
  %38 = load ptr, ptr %37, align 8
  tail call void %38(ptr noundef nonnull align 8 dereferenceable(72) %17) #25
  invoke void @_ZN6memory10deallocateEPv(ptr noundef nonnull align 8 dereferenceable(72) %17)
          to label %_ZN3refI6solverED2Ev.exit unwind label %39

39:                                               ; preds = %36
  %40 = landingpad { ptr, i32 }
          catch ptr null
  %41 = extractvalue { ptr, i32 } %40, 0
  tail call void @__clang_call_terminate(ptr %41) #26
  unreachable

_ZN3refI6solverED2Ev.exit:                        ; preds = %._crit_edge, %31, %36
  call void @llvm.lifetime.end.p0(i64 8, ptr nonnull %3) #25
  ret void

.lr.ph:                                           ; preds = %.lr.ph.preheader, %63
  %.022 = phi ptr [ %64, %63 ], [ %24, %.lr.ph.preheader ]
  %42 = load ptr, ptr %.022, align 8, !tbaa !42, !nonnull !43, !noundef !43
  %43 = tail call ptr @__dynamic_cast(ptr nonnull %42, ptr nonnull @_ZTI6solver, ptr nonnull @_ZTI11pool_solver, i64 0) #25
  %44 = getelementptr inbounds nuw i8, ptr %43, i64 160
  %45 = load ptr, ptr %44, align 8, !tbaa !3
  %46 = icmp eq ptr %1, %45
  br i1 %46, label %47, label %63

47:                                               ; preds = %.lr.ph
  %48 = getelementptr inbounds nuw i8, ptr %43, i64 184
  store i32 0, ptr %48, align 8, !tbaa !149
  br i1 %.not.i.i, label %52, label %49

49:                                               ; preds = %47
  %50 = load i32, ptr %30, align 8, !tbaa !9
  %51 = add i32 %50, 1
  store i32 %51, ptr %30, align 8, !tbaa !9
  br label %52

52:                                               ; preds = %49, %47
  br i1 %.not.i.i.i, label %_ZN11pool_solver7refreshEP6solver.exit, label %53

53:                                               ; preds = %52
  %54 = getelementptr inbounds nuw i8, ptr %45, i64 48
  %55 = load i32, ptr %54, align 8, !tbaa !9
  %56 = add i32 %55, -1
  store i32 %56, ptr %54, align 8, !tbaa !9
  %57 = icmp eq i32 %56, 0
  br i1 %57, label %58, label %_ZN11pool_solver7refreshEP6solver.exit

58:                                               ; preds = %53
  %59 = load ptr, ptr %45, align 8, !tbaa !38
  %60 = load ptr, ptr %59, align 8
  tail call void %60(ptr noundef nonnull align 8 dereferenceable(72) %45) #25
  invoke void @_ZN6memory10deallocateEPv(ptr noundef nonnull align 8 dereferenceable(72) %45)
          to label %_ZN11pool_solver7refreshEP6solver.exit unwind label %61

_ZN11pool_solver7refreshEP6solver.exit:           ; preds = %58, %52, %53
  store ptr %17, ptr %44, align 8, !tbaa !3
  br label %63

61:                                               ; preds = %58
  %62 = landingpad { ptr, i32 }
          cleanup
  call void @_ZN3refI6solverED2Ev(ptr noundef nonnull align 8 dereferenceable(8) %3) #25
  call void @llvm.lifetime.end.p0(i64 8, ptr nonnull %3) #25
  resume { ptr, i32 } %62

63:                                               ; preds = %_ZN11pool_solver7refreshEP6solver.exit, %.lr.ph
  %64 = getelementptr inbounds nuw i8, ptr %.022, i64 8
  %.not = icmp eq ptr %64, %29
  br i1 %.not, label %._crit_edge, label %.lr.ph
}